Certificate:
    Data:
        Version: 3 (0x2)
        Serial Number: 1 (0x1)
    Signature Algorithm: sha256WithRSAEncryption
        Issuer: DC=com, DC=example, O=Example Com Inc., OU=Example Com Inc. Root CA, CN=Example Com Inc. Root CA
        Validity
            Not Before: Nov  7 07:10:31 2017 GMT
            Not After : Nov  7 07:10:31 2027 GMT
        Subject: DC=com, DC=example, O=Example Com Inc., OU=Example Com Inc. Root CA, CN=Example Com Inc. Root CA
        Subject Public Key Info:
            Public Key Algorithm: rsaEncryption
                Public-Key: (2048 bit)
                Modulus:
                    00:d7:e3:2f:28:06:a5:1a:5b:c6:8c:db:d7:a1:7f:
                    0a:8b:a1:f8:c4:8b:89:c9:fb:4e:0a:c2:35:b2:33:
                    5e:2f:08:71:cd:01:1f:1f:10:92:61:19:76:d1:58:
                    2e:52:4d:61:2e:ee:eb:70:b8:bc:10:d5:74:22:c5:
                    19:94:7b:fd:41:dd:45:6c:e5:6a:66:f4:91:e9:9f:
                    9c:0e:c5:26:b4:c6:eb:cc:91:5d:44:9b:4b:93:11:
                    00:cb:7a:4a:c3:ff:75:36:a6:62:15:bf:0c:fe:0f:
                    aa:58:c2:de:97:cc:7d:b5:0b:b6:f9:31:1b:08:cf:
                    05:38:c2:af:6e:42:00:d1:2b:76:8d:ca:ed:59:84:
                    69:dd:9b:44:a0:11:cc:6a:dc:7a:48:81:7a:04:1c:
                    e1:7e:7b:72:98:eb:9e:48:ec:e1:63:39:ef:2c:27:
                    56:e9:4d:dd:1c:a9:f0:0f:0e:5b:65:ab:e5:77:d8:
                    f3:83:b5:e9:41:30:28:b9:a8:19:d4:b3:a6:49:8a:
                    5e:44:ee:d0:cc:ee:71:60:eb:a7:18:4f:f7:8c:37:
                    17:88:30:38:47:be:a7:b4:88:1a:3d:50:11:7f:39:
                    3d:9f:54:c7:d4:72:98:2c:e5:6a:e3:fd:82:27:04:
                    ea:02:25:dd:ee:74:3b:1e:85:ea:0c:8b:31:0f:39:
                    be:b9
                Exponent: 65537 (0x10001)
        X509v3 extensions:
            X509v3 Key Usage: critical
                Certificate Sign, CRL Sign
            X509v3 Basic Constraints: critical
                CA:TRUE
            X509v3 Subject Key Identifier: 
                1C:81:38:6D:8A:20:9E:4F:24:70:66:80:B3:D2:85:AE:9C:BF:E4:D5
            X509v3 Authority Key Identifier: 
                keyid:1C:81:38:6D:8A:20:9E:4F:24:70:66:80:B3:D2:85:AE:9C:BF:E4:D5

    Signature Algorithm: sha256WithRSAEncryption
         7d:84:1c:40:06:0a:9d:56:44:ce:01:fc:6b:e7:c7:9e:09:a2:
         08:44:33:3d:8b:01:96:8e:10:20:36:b1:44:77:43:7f:7d:49:
         1d:86:c1:8c:8e:ea:82:0a:48:8d:aa:25:cc:77:0f:26:80:b5:
         72:96:b8:70:1c:d2:e0:90:ea:9f:d9:4a:df:44:ee:4e:05:cf:
         dc:40:f2:67:76:f7:b7:2a:8a:1e:1e:7e:8e:60:22:67:ed:fa:
         bd:27:54:a5:09:ad:ae:be:7a:af:a7:12:7e:c2:9d:08:6d:ca:
         c6:46:16:f1:ac:ea:3d:87:43:a1:8f:f7:92:72:fe:64:40:f5:
         30:19:80:76:04:bc:34:14:ce:44:df:19:ad:d8:cd:39:8b:ee:
         b5:44:a0:f5:49:62:6b:f8:35:c0:dc:ea:c1:6b:5d:8c:45:75:
         34:f9:dc:91:2e:44:3d:e9:20:65:5f:74:ba:00:87:b7:68:52:
         a2:23:fd:b0:b8:64:77:f9:b5:af:96:a9:e8:df:ad:00:23:06:
         6f:d9:8b:ff:e9:25:39:b4:a6:40:0f:1b:a0:67:e5:e0:d8:bb:
         57:ab:cf:21:85:35:40:c9:9a:2a:6d:f1:ba:c9:f6:fc:49:a0:
         a5:2d:9b:e4:27:47:38:dc:eb:38:c5:a7:6e:c4:38:aa:9a:ec:
         93:56:d7:5c
-----BEGIN CERTIFICATE-----
MIID/jCCAuagAwIBAgIBATANBgkqhkiG9w0BAQsFADCBjzETMBEGCgmSJomT8ixk
ARkWA2NvbTEXMBUGCgmSJomT8ixkARkWB2V4YW1wbGUxGTAXBgNVBAoMEEV4YW1w
bGUgQ29tIEluYy4xITAfBgNVBAsMGEV4YW1wbGUgQ29tIEluYy4gUm9vdCBDQTEh
MB8GA1UEAwwYRXhhbXBsZSBDb20gSW5jLiBSb290IENBMB4XDTE3MTEwNzA3MTAz
MVoXDTI3MTEwNzA3MTAzMVowgY8xEzARBgoJkiaJk/IsZAEZFgNjb20xFzAVBgoJ
kiaJk/IsZAEZFgdleGFtcGxlMRkwFwYDVQQKDBBFeGFtcGxlIENvbSBJbmMuMSEw
HwYDVQQLDBhFeGFtcGxlIENvbSBJbmMuIFJvb3QgQ0ExITAfBgNVBAMMGEV4YW1w
bGUgQ29tIEluYy4gUm9vdCBDQTCCASIwDQYJKoZIhvcNAQEBBQADggEPADCCAQoC
ggEBANfjLygGpRpbxozb16F/Couh+MSLicn7TgrCNbIzXi8Icc0BHx8QkmEZdtFY
LlJNYS7u63C4vBDVdCLFGZR7/UHdRWzlamb0kemfnA7FJrTG68yRXUSbS5MRAMt6
SsP/dTamYhW/DP4PqljC3pfMfbULtvkxGwjPBTjCr25CANErdo3K7VmEad2bRKAR
zGrcekiBegQc4X57cpjrnkjs4WM57ywnVulN3Ryp8A8OW2Wr5XfY84O16UEwKLmo
GdSzpkmKXkTu0MzucWDrpxhP94w3F4gwOEe+p7SIGj1QEX85PZ9Ux9RymCzlauP9
gicE6gIl3e50Ox6F6gyLMQ85vrkCAwEAAaNjMGEwDgYDVR0PAQH/BAQDAgEGMA8G
A1UdEwEB/wQFMAMBAf8wHQYDVR0OBBYEFByBOG2KIJ5PJHBmgLPSha6cv+TVMB8G
A1UdIwQYMBaAFByBOG2KIJ5PJHBmgLPSha6cv+TVMA0GCSqGSIb3DQEBCwUAA4IB
AQB9hBxABgqdVkTOAfxr58eeCaIIRDM9iwGWjhAgNrFEd0N/fUkdhsGMjuqCCkiN
qiXMdw8mgLVylrhwHNLgkOqf2UrfRO5OBc/cQPJndve3KooeHn6OYCJn7fq9J1Sl
Ca2uvnqvpxJ+wp0IbcrGRhbxrOo9h0Ohj/eScv5kQPUwGYB2BLw0FM5E3xmt2M05
i+61RKD1SWJr+DXA3OrBa12MRXU0+dyRLkQ96SBlX3S6AIe3aFKiI/2wuGR3+bWv
lqno360AIwZv2Yv/6SU5tKZADxugZ+Xg2LtXq88hhTVAyZoqbfG6yfb8SaClLZvk
J0c43Os4xaduxDiqmuyTVtdc
-----END CERTIFICATE-----
