Certificate:
    Data:
        Version: 3 (0x2)
        Serial Number: 2 (0x2)
    Signature Algorithm: sha256WithRSAEncryption
        Issuer: DC=com, DC=example, O=Example Com Inc., OU=Example Com Inc. Root CA, CN=Example Com Inc. Root CA
        Validity
            Not Before: Nov  7 07:10:31 2017 GMT
            Not After : Nov  7 07:10:31 2027 GMT
        Subject: DC=com, DC=example, O=Example Com Inc., OU=Example Com Inc. Signing CA, CN=Example Com Inc. Signing CA
        Subject Public Key Info:
            Public Key Algorithm: rsaEncryption
                Public-Key: (2048 bit)
                Modulus:
                    00:d6:03:47:17:cd:de:86:95:cc:18:c7:11:2a:60:
                    80:45:05:cc:ab:f2:ff:29:10:6c:ba:d5:c1:6c:ca:
                    7e:63:ad:b7:df:dd:5c:79:5b:05:dd:bb:eb:bf:8c:
                    8a:64:99:3d:65:04:28:63:10:2b:5c:09:24:a3:83:
                    59:31:3e:db:cb:bd:e6:6b:11:29:d3:9b:5c:84:7c:
                    3b:17:a9:76:d7:cd:1b:27:c9:20:93:a5:28:3a:4f:
                    65:aa:fa:0a:4d:50:09:fa:08:ff:a4:4d:38:c9:c6:
                    fd:8e:08:24:d0:e8:4e:32:f3:02:e1:19:ed:3b:66:
                    01:3d:d9:0e:30:5f:1c:2f:fc:21:95:e7:6f:b9:90:
                    86:12:31:bf:93:fb:ac:32:63:da:80:4d:9b:1d:9c:
                    f9:c1:ac:bf:e5:b6:e7:39:6b:b9:b6:5b:a5:47:e1:
                    e5:d1:f7:f0:74:18:3c:e7:98:a9:7f:49:64:6a:ca:
                    da:5d:4c:ca:41:4b:f7:a7:ca:e6:ec:ad:fc:f0:f5:
                    07:fe:95:b6:83:e4:e3:a8:86:8b:3e:d8:ac:b6:2d:
                    dc:23:18:4d:b0:97:59:7f:15:ca:23:a9:d6:41:65:
                    a4:18:9b:2b:2b:73:5b:c0:26:78:20:50:21:ef:42:
                    7d:27:24:dd:12:c4:27:1b:5e:4f:16:99:77:bb:44:
                    4c:51
                Exponent: 65537 (0x10001)
        X509v3 extensions:
            X509v3 Key Usage: critical
                Certificate Sign, CRL Sign
            X509v3 Basic Constraints: critical
                CA:TRUE, pathlen:0
            X509v3 Subject Key Identifier: 
                FB:49:73:48:B2:55:CB:6D:C3:B0:02:69:FA:5C:B7:7A:BD:2F:79:D1
            X509v3 Authority Key Identifier: 
                keyid:1C:81:38:6D:8A:20:9E:4F:24:70:66:80:B3:D2:85:AE:9C:BF:E4:D5

    Signature Algorithm: sha256WithRSAEncryption
         7f:09:04:76:55:86:77:b2:a8:07:0d:64:49:59:88:06:a8:e2:
         51:2a:1f:ae:b8:1a:21:48:fb:0e:6b:0e:19:88:9b:33:d7:4b:
         72:5e:73:74:db:d7:c5:aa:2f:b4:3a:c4:58:23:1f:8d:d0:43:
         ca:ed:2c:e2:47:78:6d:39:1a:6f:83:f0:02:28:a0:d0:72:ff:
         a1:ef:05:f9:0a:c1:4b:d2:71:96:ab:5a:45:a5:b7:7d:4b:0a:
         f3:c3:8d:71:77:3f:fa:cb:2f:a1:f5:e2:19:b0:85:b7:49:94:
         36:f3:54:70:ad:90:39:aa:1e:10:7b:20:fc:07:bc:3b:c9:8a:
         45:47:dd:20:f7:67:2b:e6:2e:d4:8a:96:22:5a:0a:8e:55:7e:
         c3:ee:54:4c:43:69:7d:94:02:23:cf:91:8a:c6:54:1b:23:26:
         39:26:68:1c:8f:2f:78:76:ad:76:37:98:e6:e4:72:0d:e3:27:
         5d:87:05:15:36:67:c9:15:62:f9:3d:3c:40:d2:e8:3d:88:5f:
         85:10:71:ad:9f:8f:5a:d6:db:0b:cd:6d:c0:26:0f:b9:aa:11:
         ee:71:82:35:0d:a7:6e:9f:0f:10:ec:4d:e8:2f:d4:68:2f:8a:
         82:c3:a1:4e:9e:a4:ad:f8:57:a2:8a:1f:dd:51:d4:80:bb:4c:
         b7:44:f3:3b
-----BEGIN CERTIFICATE-----
MIIEBzCCAu+gAwIBAgIBAjANBgkqhkiG9w0BAQsFADCBjzETMBEGCgmSJomT8ixk
ARkWA2NvbTEXMBUGCgmSJomT8ixkARkWB2V4YW1wbGUxGTAXBgNVBAoMEEV4YW1w
bGUgQ29tIEluYy4xITAfBgNVBAsMGEV4YW1wbGUgQ29tIEluYy4gUm9vdCBDQTEh
MB8GA1UEAwwYRXhhbXBsZSBDb20gSW5jLiBSb290IENBMB4XDTE3MTEwNzA3MTAz
MVoXDTI3MTEwNzA3MTAzMVowgZUxEzARBgoJkiaJk/IsZAEZFgNjb20xFzAVBgoJ
kiaJk/IsZAEZFgdleGFtcGxlMRkwFwYDVQQKDBBFeGFtcGxlIENvbSBJbmMuMSQw
IgYDVQQLDBtFeGFtcGxlIENvbSBJbmMuIFNpZ25pbmcgQ0ExJDAiBgNVBAMMG0V4
YW1wbGUgQ29tIEluYy4gU2lnbmluZyBDQTCCASIwDQYJKoZIhvcNAQEBBQADggEP
ADCCAQoCggEBANYDRxfN3oaVzBjHESpggEUFzKvy/ykQbLrVwWzKfmOtt9/dXHlb
Bd2767+MimSZPWUEKGMQK1wJJKODWTE+28u95msRKdObXIR8OxepdtfNGyfJIJOl
KDpPZar6Ck1QCfoI/6RNOMnG/Y4IJNDoTjLzAuEZ7TtmAT3ZDjBfHC/8IZXnb7mQ
hhIxv5P7rDJj2oBNmx2c+cGsv+W25zlrubZbpUfh5dH38HQYPOeYqX9JZGrK2l1M
ykFL96fK5uyt/PD1B/6VtoPk46iGiz7YrLYt3CMYTbCXWX8VyiOp1kFlpBibKytz
W8AmeCBQIe9CfSck3RLEJxteTxaZd7tETFECAwEAAaNmMGQwDgYDVR0PAQH/BAQD
AgEGMBIGA1UdEwEB/wQIMAYBAf8CAQAwHQYDVR0OBBYEFPtJc0iyVcttw7ACafpc
t3q9L3nRMB8GA1UdIwQYMBaAFByBOG2KIJ5PJHBmgLPSha6cv+TVMA0GCSqGSIb3
DQEBCwUAA4IBAQB/CQR2VYZ3sqgHDWRJWYgGqOJRKh+uuBohSPsOaw4ZiJsz10ty
XnN029fFqi+0OsRYIx+N0EPK7SziR3htORpvg/ACKKDQcv+h7wX5CsFL0nGWq1pF
pbd9Swrzw41xdz/6yy+h9eIZsIW3SZQ281RwrZA5qh4QeyD8B7w7yYpFR90g92cr
5i7UipYiWgqOVX7D7lRMQ2l9lAIjz5GKxlQbIyY5Jmgcjy94dq12N5jm5HIN4ydd
hwUVNmfJFWL5PTxA0ug9iF+FEHGtn49a1tsLzW3AJg+5qhHucYI1Dadunw8Q7E3o
L9RoL4qCw6FOnqSt+Feiih/dUdSAu0y3RPM7
-----END CERTIFICATE-----
